target datalayout = "e-m:e-p270:32:32-p271:32:32-p272:64:64-i64:64-i128:128-f80:128-n8:16:32:64-S128"
target triple = "x86_64-pc-linux-gnu"

@.str.2 = private unnamed_addr constant [13 x i8] c"be-fsstubs.c\00", align 1
@lo_cleanup_needed = internal global i8 0, align 1
@CurrentMemoryContext = external global ptr, align 8
@.str.15 = private unnamed_addr constant [30 x i8] c"could not close file \22%s\22: %m\00", align 1
@.str.21 = private unnamed_addr constant [12 x i8] c"lo_import()\00", align 1
@.str.22 = private unnamed_addr constant [36 x i8] c"could not open server file \22%s\22: %m\00", align 1
@__func__.lo_import_internal = private unnamed_addr constant [19 x i8] c"lo_import_internal\00", align 1
@.str.23 = private unnamed_addr constant [36 x i8] c"could not read server file \22%s\22: %m\00", align 1

; Function Attrs: nounwind uwtable
define internal i32 @lo_import_internal(ptr noundef %0, i32 noundef %1) #0 {
  %3 = alloca ptr, align 8
  %4 = alloca i32, align 4
  %5 = alloca i32, align 4
  %6 = alloca i32, align 4
  %7 = alloca i32, align 4
  %8 = alloca [8192 x i8], align 16
  %9 = alloca [1024 x i8], align 16
  %10 = alloca ptr, align 8
  %11 = alloca i32, align 4
  store ptr %0, ptr %3, align 8
  store i32 %1, ptr %4, align 4
  call void @llvm.lifetime.start.p0(i64 4, ptr %5) #8
  call void @llvm.lifetime.start.p0(i64 4, ptr %6) #8
  call void @llvm.lifetime.start.p0(i64 4, ptr %7) #8
  call void @llvm.lifetime.start.p0(i64 8192, ptr %8) #8
  call void @llvm.lifetime.start.p0(i64 1024, ptr %9) #8
  call void @llvm.lifetime.start.p0(i64 8, ptr %10) #8
  call void @llvm.lifetime.start.p0(i64 4, ptr %11) #8
  call void @PreventCommandIfReadOnly(ptr noundef @.str.21)
  %12 = load ptr, ptr %3, align 8
  %13 = getelementptr inbounds [1024 x i8], ptr %9, i64 0, i64 0
  call void @text_to_cstring_buffer(ptr noundef %12, ptr noundef %13, i64 noundef 1024)
  %14 = getelementptr inbounds [1024 x i8], ptr %9, i64 0, i64 0
  %15 = call i32 @OpenTransientFile(ptr noundef %14, i32 noundef 0)
  store i32 %15, ptr %5, align 4
  %16 = load i32, ptr %5, align 4
  %17 = icmp slt i32 %16, 0
  br i1 %17, label %18, label %31

18:                                               ; preds = %2
  br label %19

19:                                               ; preds = %18
  br i1 true, label %20, label %22

20:                                               ; preds = %19
  %21 = call zeroext i1 @errstart_cold(i32 noundef 21, ptr noundef null) #9
  br i1 %21, label %24, label %28

22:                                               ; preds = %19
  %23 = call zeroext i1 @errstart(i32 noundef 21, ptr noundef null)
  br i1 %23, label %24, label %28

24:                                               ; preds = %22, %20
  %25 = call i32 @errcode_for_file_access()
  %26 = getelementptr inbounds [1024 x i8], ptr %9, i64 0, i64 0
  %27 = call i32 (ptr, ...) @errmsg(ptr noundef @.str.22, ptr noundef %26)
  call void @errfinish(ptr noundef @.str.2, i32 noundef 445, ptr noundef @__func__.lo_import_internal)
  br label %28

28:                                               ; preds = %24, %22, %20
  unreachable

29:                                               ; No predecessors!
  br label %30

30:                                               ; preds = %29
  br label %31

31:                                               ; preds = %30, %2
  store i8 1, ptr @lo_cleanup_needed, align 1
  %32 = load i32, ptr %4, align 4
  %33 = call i32 @inv_create(i32 noundef %32)
  store i32 %33, ptr %11, align 4
  %34 = load i32, ptr %11, align 4
  %35 = load ptr, ptr @CurrentMemoryContext, align 8
  %36 = call ptr @inv_open(i32 noundef %34, i32 noundef 131072, ptr noundef %35)
  store ptr %36, ptr %10, align 8
  br label %37

37:                                               ; preds = %43, %31
  %38 = load i32, ptr %5, align 4
  %39 = getelementptr inbounds [8192 x i8], ptr %8, i64 0, i64 0
  %40 = call i64 @read(i32 noundef %38, ptr noundef %39, i64 noundef 8192)
  %41 = trunc i64 %40 to i32
  store i32 %41, ptr %6, align 4
  %42 = icmp sgt i32 %41, 0
  br i1 %42, label %43, label %48

43:                                               ; preds = %37
  %44 = load ptr, ptr %10, align 8
  %45 = getelementptr inbounds [8192 x i8], ptr %8, i64 0, i64 0
  %46 = load i32, ptr %6, align 4
  %47 = call i32 @inv_write(ptr noundef %44, ptr noundef %45, i32 noundef %46)
  store i32 %47, ptr %7, align 4
  br label %37, !llvm.loop !9

48:                                               ; preds = %37
  %49 = load i32, ptr %6, align 4
  %50 = icmp slt i32 %49, 0
  br i1 %50, label %51, label %64

51:                                               ; preds = %48
  br label %52

52:                                               ; preds = %51
  br i1 true, label %53, label %55

53:                                               ; preds = %52
  %54 = call zeroext i1 @errstart_cold(i32 noundef 21, ptr noundef null) #9
  br i1 %54, label %57, label %61

55:                                               ; preds = %52
  %56 = call zeroext i1 @errstart(i32 noundef 21, ptr noundef null)
  br i1 %56, label %57, label %61

57:                                               ; preds = %55, %53
  %58 = call i32 @errcode_for_file_access()
  %59 = getelementptr inbounds [1024 x i8], ptr %9, i64 0, i64 0
  %60 = call i32 (ptr, ...) @errmsg(ptr noundef @.str.23, ptr noundef %59)
  call void @errfinish(ptr noundef @.str.2, i32 noundef 468, ptr noundef @__func__.lo_import_internal)
  br label %61

61:                                               ; preds = %57, %55, %53
  unreachable

62:                                               ; No predecessors!
  br label %63

63:                                               ; preds = %62
  br label %64

64:                                               ; preds = %63, %48
  %65 = load ptr, ptr %10, align 8
  call void @inv_close(ptr noundef %65)
  %66 = load i32, ptr %5, align 4
  %67 = call i32 @CloseTransientFile(i32 noundef %66)
  %68 = icmp ne i32 %67, 0
  br i1 %68, label %69, label %82

69:                                               ; preds = %64
  br label %70

70:                                               ; preds = %69
  br i1 true, label %71, label %73

71:                                               ; preds = %70
  %72 = call zeroext i1 @errstart_cold(i32 noundef 21, ptr noundef null) #9
  br i1 %72, label %75, label %79

73:                                               ; preds = %70
  %74 = call zeroext i1 @errstart(i32 noundef 21, ptr noundef null)
  br i1 %74, label %75, label %79

75:                                               ; preds = %73, %71
  %76 = call i32 @errcode_for_file_access()
  %77 = getelementptr inbounds [1024 x i8], ptr %9, i64 0, i64 0
  %78 = call i32 (ptr, ...) @errmsg(ptr noundef @.str.15, ptr noundef %77)
  call void @errfinish(ptr noundef @.str.2, i32 noundef 476, ptr noundef @__func__.lo_import_internal)
  br label %79

79:                                               ; preds = %75, %73, %71
  unreachable

80:                                               ; No predecessors!
  br label %81

81:                                               ; preds = %80
  br label %82

82:                                               ; preds = %81, %64
  %83 = load i32, ptr %11, align 4
  call void @llvm.lifetime.end.p0(i64 4, ptr %11) #8
  call void @llvm.lifetime.end.p0(i64 8, ptr %10) #8
  call void @llvm.lifetime.end.p0(i64 1024, ptr %9) #8
  call void @llvm.lifetime.end.p0(i64 8192, ptr %8) #8
  call void @llvm.lifetime.end.p0(i64 4, ptr %7) #8
  call void @llvm.lifetime.end.p0(i64 4, ptr %6) #8
  call void @llvm.lifetime.end.p0(i64 4, ptr %5) #8
  ret i32 %83
}