; Function Attrs: nounwind uwtable
define internal fastcc noundef i32 @lo_import_internal(ptr noundef %0, i32 noundef %1) unnamed_addr #0 {
  %3 = alloca [8192 x i8], align 16
  %4 = alloca [1024 x i8], align 16
  call void @llvm.lifetime.start.p0(i64 8192, ptr nonnull %3) #10
  call void @llvm.lifetime.start.p0(i64 1024, ptr nonnull %4) #10
  tail call void @PreventCommandIfReadOnly(ptr noundef nonnull @.str.21) #10
  call void @text_to_cstring_buffer(ptr noundef %0, ptr noundef nonnull %4, i64 noundef 1024) #10
  %5 = call i32 @OpenTransientFile(ptr noundef nonnull %4, i32 noundef 0) #10
  %6 = icmp slt i32 %5, 0
  br i1 %6, label %7, label %11

7:                                                ; preds = %2
  %8 = call zeroext i1 @errstart_cold(i32 noundef 21, ptr noundef null) #11
  call void @llvm.assume(i1 %8)
  %9 = call i32 @errcode_for_file_access() #10
  %10 = call i32 (ptr, ...) @errmsg(ptr noundef nonnull @.str.22, ptr noundef nonnull %4) #10
  call void @errfinish(ptr noundef nonnull @.str.2, i32 noundef 445, ptr noundef nonnull @__func__.lo_import_internal) #10
  unreachable

11:                                               ; preds = %2
  store i1 true, ptr @lo_cleanup_needed, align 1
  %12 = call i32 @inv_create(i32 noundef %1) #10
  %13 = load ptr, ptr @CurrentMemoryContext, align 8
  %14 = call ptr @inv_open(i32 noundef %12, i32 noundef 131072, ptr noundef %13) #10
  %15 = call i64 @read(i32 noundef %5, ptr noundef nonnull %3, i64 noundef 8192) #10
  %16 = trunc i64 %15 to i32
  %17 = icmp sgt i32 %16, 0
  br i1 %17, label %.lr.ph, label %._crit_edge

.lr.ph:                                           ; preds = %11, %.lr.ph
  %18 = phi i32 [ %21, %.lr.ph ], [ %16, %11 ]
  %19 = call i32 @inv_write(ptr noundef %14, ptr noundef nonnull %3, i32 noundef %18) #10
  %20 = call i64 @read(i32 noundef %5, ptr noundef nonnull %3, i64 noundef 8192) #10
  %21 = trunc i64 %20 to i32
  %22 = icmp sgt i32 %21, 0
  br i1 %22, label %.lr.ph, label %._crit_edge, !llvm.loop !9

._crit_edge:                                      ; preds = %.lr.ph, %11
  %.lcssa = phi i32 [ %16, %11 ], [ %21, %.lr.ph ]
  %23 = icmp slt i32 %.lcssa, 0
  br i1 %23, label %24, label %28

24:                                               ; preds = %._crit_edge
  %25 = call zeroext i1 @errstart_cold(i32 noundef 21, ptr noundef null) #11
  call void @llvm.assume(i1 %25)
  %26 = call i32 @errcode_for_file_access() #10
  %27 = call i32 (ptr, ...) @errmsg(ptr noundef nonnull @.str.23, ptr noundef nonnull %4) #10
  call void @errfinish(ptr noundef nonnull @.str.2, i32 noundef 468, ptr noundef nonnull @__func__.lo_import_internal) #10
  unreachable

28:                                               ; preds = %._crit_edge
  call void @inv_close(ptr noundef %14) #10
  %29 = call i32 @CloseTransientFile(i32 noundef %5) #10
  %.not = icmp eq i32 %29, 0
  br i1 %.not, label %34, label %30

30:                                               ; preds = %28
  %31 = call zeroext i1 @errstart_cold(i32 noundef 21, ptr noundef null) #11
  call void @llvm.assume(i1 %31)
  %32 = call i32 @errcode_for_file_access() #10
  %33 = call i32 (ptr, ...) @errmsg(ptr noundef nonnull @.str.15, ptr noundef nonnull %4) #10
  call void @errfinish(ptr noundef nonnull @.str.2, i32 noundef 476, ptr noundef nonnull @__func__.lo_import_internal) #10
  unreachable

34:                                               ; preds = %28
  call void @llvm.lifetime.end.p0(i64 1024, ptr nonnull %4) #10
  call void @llvm.lifetime.end.p0(i64 8192, ptr nonnull %3) #10
  ret i32 %12
}